target datalayout = "e-m:e-p270:32:32-p271:32:32-p272:64:64-i64:64-i128:128-f80:128-n8:16:32:64-S128"
target triple = "x86_64-pc-linux-gnu"

%struct.QMetaObject = type { %struct.anon }
%struct.anon = type { %"struct.QMetaObject::SuperData", ptr, ptr, ptr, ptr, ptr }
%"struct.QMetaObject::SuperData" = type { ptr }

@_ZN22MLRenderingSolidAction16staticMetaObjectE = external global %struct.QMetaObject, align 8
@_ZN23MLRenderingPointsAction16staticMetaObjectE = external global %struct.QMetaObject, align 8
@_ZN21MLRenderingWireAction16staticMetaObjectE = external global %struct.QMetaObject, align 8
@_ZN26MLRenderingSelectionAction16staticMetaObjectE = external global %struct.QMetaObject, align 8
@_ZN21MLRenderingBBoxAction16staticMetaObjectE = external global %struct.QMetaObject, align 8
@_ZN30MLRenderingEdgeDecoratorAction16staticMetaObjectE = external global %struct.QMetaObject, align 8
@_ZN31MLRenderingSolidParametersFrameC1EiP7QWidget = unnamed_addr alias void (ptr, i32, ptr), ptr @_ZN31MLRenderingSolidParametersFrameC2EiP7QWidget
@_ZN30MLRenderingWireParametersFrameC1EiP7QWidget = unnamed_addr alias void (ptr, i32, ptr), ptr @_ZN30MLRenderingWireParametersFrameC2EiP7QWidget
@_ZN32MLRenderingPointsParametersFrameC1EiP7QWidget = unnamed_addr alias void (ptr, i32, ptr), ptr @_ZN32MLRenderingPointsParametersFrameC2EiP7QWidget
@_ZN30MLRenderingBBoxParametersFrameC1EiP7QWidget = unnamed_addr alias void (ptr, i32, ptr), ptr @_ZN30MLRenderingBBoxParametersFrameC2EiP7QWidget
@_ZN42MLRenderingDefaultDecoratorParametersFrameC1EiP7QWidget = unnamed_addr alias void (ptr, i32, ptr), ptr @_ZN42MLRenderingDefaultDecoratorParametersFrameC2EiP7QWidget
@_ZN35MLRenderingSelectionParametersFrameC1EiP7QWidget = unnamed_addr alias void (ptr, i32, ptr), ptr @_ZN35MLRenderingSelectionParametersFrameC2EiP7QWidget

; Function Attrs: mustprogress uwtable
define linkonce_odr noundef ptr @_Z12qobject_castIP30MLRenderingEdgeDecoratorActionET_P7QObject(ptr noundef %0) #5 comdat {
  %2 = alloca ptr, align 8
  store ptr %0, ptr %2, align 8
  %3 = load ptr, ptr %2, align 8
  %4 = call noundef ptr @_ZNK11QMetaObject4castEP7QObject(ptr noundef nonnull align 8 dereferenceable(48) @_ZN30MLRenderingEdgeDecoratorAction16staticMetaObjectE, ptr noundef %3)
  ret ptr %4
}

; Function Attrs: mustprogress uwtable
define linkonce_odr noundef ptr @_Z12qobject_castIP21MLRenderingBBoxActionET_P7QObject(ptr noundef %0) #5 comdat {
  %2 = alloca ptr, align 8
  store ptr %0, ptr %2, align 8
  %3 = load ptr, ptr %2, align 8
  %4 = call noundef ptr @_ZNK11QMetaObject4castEP7QObject(ptr noundef nonnull align 8 dereferenceable(48) @_ZN21MLRenderingBBoxAction16staticMetaObjectE, ptr noundef %3)
  ret ptr %4
}

; Function Attrs: mustprogress uwtable
define linkonce_odr noundef ptr @_Z12qobject_castIP26MLRenderingSelectionActionET_P7QObject(ptr noundef %0) #5 comdat {
  %2 = alloca ptr, align 8
  store ptr %0, ptr %2, align 8
  %3 = load ptr, ptr %2, align 8
  %4 = call noundef ptr @_ZNK11QMetaObject4castEP7QObject(ptr noundef nonnull align 8 dereferenceable(48) @_ZN26MLRenderingSelectionAction16staticMetaObjectE, ptr noundef %3)
  ret ptr %4
}

; Function Attrs: mustprogress uwtable
define linkonce_odr noundef ptr @_Z12qobject_castIP21MLRenderingWireActionET_P7QObject(ptr noundef %0) #5 comdat {
  %2 = alloca ptr, align 8
  store ptr %0, ptr %2, align 8
  %3 = load ptr, ptr %2, align 8
  %4 = call noundef ptr @_ZNK11QMetaObject4castEP7QObject(ptr noundef nonnull align 8 dereferenceable(48) @_ZN21MLRenderingWireAction16staticMetaObjectE, ptr noundef %3)
  ret ptr %4
}

; Function Attrs: mustprogress uwtable
define linkonce_odr noundef ptr @_Z12qobject_castIP23MLRenderingPointsActionET_P7QObject(ptr noundef %0) #5 comdat {
  %2 = alloca ptr, align 8
  store ptr %0, ptr %2, align 8
  %3 = load ptr, ptr %2, align 8
  %4 = call noundef ptr @_ZNK11QMetaObject4castEP7QObject(ptr noundef nonnull align 8 dereferenceable(48) @_ZN23MLRenderingPointsAction16staticMetaObjectE, ptr noundef %3)
  ret ptr %4
}

; Function Attrs: mustprogress uwtable
define linkonce_odr noundef ptr @_Z12qobject_castIP22MLRenderingSolidActionET_P7QObject(ptr noundef %0) #5 comdat {
  %2 = alloca ptr, align 8
  store ptr %0, ptr %2, align 8
  %3 = load ptr, ptr %2, align 8
  %4 = call noundef ptr @_ZNK11QMetaObject4castEP7QObject(ptr noundef nonnull align 8 dereferenceable(48) @_ZN22MLRenderingSolidAction16staticMetaObjectE, ptr noundef %3)
  ret ptr %4
}

; Function Attrs: mustprogress uwtable
define noundef ptr @_ZN26MLRenderingParametersFrame7factoryEP17MLRenderingActioniP7QWidget(ptr noundef %0, i32 noundef %1, ptr noundef %2) #5 align 2 personality ptr @__gxx_personality_v0 {
  %4 = alloca ptr, align 8
  %5 = alloca ptr, align 8
  %6 = alloca i32, align 4
  %7 = alloca ptr, align 8
  %8 = alloca ptr, align 8
  %9 = alloca i32, align 4
  store ptr %0, ptr %5, align 8
  store i32 %1, ptr %6, align 4
  store ptr %2, ptr %7, align 8
  %10 = load ptr, ptr %5, align 8
  %11 = call noundef ptr @_Z12qobject_castIP22MLRenderingSolidActionET_P7QObject(ptr noundef %10)
  %12 = icmp ne ptr %11, null
  br i1 %12, label %13, label %22

13:                                               ; preds = %3
  %14 = call noalias noundef nonnull ptr @_Znwm(i64 noundef 120) #15
  %15 = load i32, ptr %6, align 4
  %16 = load ptr, ptr %7, align 8
  invoke void @_ZN31MLRenderingSolidParametersFrameC1EiP7QWidget(ptr noundef nonnull align 8 dereferenceable(120) %14, i32 noundef %15, ptr noundef %16)
          to label %17 unwind label %18

17:                                               ; preds = %13
  store ptr %14, ptr %4, align 8
  br label %88

18:                                               ; preds = %13
  %19 = landingpad { ptr, i32 }
          cleanup
  %20 = extractvalue { ptr, i32 } %19, 0
  store ptr %20, ptr %8, align 8
  %21 = extractvalue { ptr, i32 } %19, 1
  store i32 %21, ptr %9, align 4
  call void @_ZdlPv(ptr noundef %14) #16
  br label %90

22:                                               ; preds = %3
  %23 = load ptr, ptr %5, align 8
  %24 = call noundef ptr @_Z12qobject_castIP23MLRenderingPointsActionET_P7QObject(ptr noundef %23)
  %25 = icmp ne ptr %24, null
  br i1 %25, label %26, label %35

26:                                               ; preds = %22
  %27 = call noalias noundef nonnull ptr @_Znwm(i64 noundef 112) #15
  %28 = load i32, ptr %6, align 4
  %29 = load ptr, ptr %7, align 8
  invoke void @_ZN32MLRenderingPointsParametersFrameC1EiP7QWidget(ptr noundef nonnull align 8 dereferenceable(112) %27, i32 noundef %28, ptr noundef %29)
          to label %30 unwind label %31

30:                                               ; preds = %26
  store ptr %27, ptr %4, align 8
  br label %88

31:                                               ; preds = %26
  %32 = landingpad { ptr, i32 }
          cleanup
  %33 = extractvalue { ptr, i32 } %32, 0
  store ptr %33, ptr %8, align 8
  %34 = extractvalue { ptr, i32 } %32, 1
  store i32 %34, ptr %9, align 4
  call void @_ZdlPv(ptr noundef %27) #16
  br label %90

35:                                               ; preds = %22
  %36 = load ptr, ptr %5, align 8
  %37 = call noundef ptr @_Z12qobject_castIP21MLRenderingWireActionET_P7QObject(ptr noundef %36)
  %38 = icmp ne ptr %37, null
  br i1 %38, label %39, label %48

39:                                               ; preds = %35
  %40 = call noalias noundef nonnull ptr @_Znwm(i64 noundef 112) #15
  %41 = load i32, ptr %6, align 4
  %42 = load ptr, ptr %7, align 8
  invoke void @_ZN30MLRenderingWireParametersFrameC1EiP7QWidget(ptr noundef nonnull align 8 dereferenceable(112) %40, i32 noundef %41, ptr noundef %42)
          to label %43 unwind label %44

43:                                               ; preds = %39
  store ptr %40, ptr %4, align 8
  br label %88

44:                                               ; preds = %39
  %45 = landingpad { ptr, i32 }
          cleanup
  %46 = extractvalue { ptr, i32 } %45, 0
  store ptr %46, ptr %8, align 8
  %47 = extractvalue { ptr, i32 } %45, 1
  store i32 %47, ptr %9, align 4
  call void @_ZdlPv(ptr noundef %40) #16
  br label %90

48:                                               ; preds = %35
  %49 = load ptr, ptr %5, align 8
  %50 = call noundef ptr @_Z12qobject_castIP26MLRenderingSelectionActionET_P7QObject(ptr noundef %49)
  %51 = icmp ne ptr %50, null
  br i1 %51, label %52, label %61

52:                                               ; preds = %48
  %53 = call noalias noundef nonnull ptr @_Znwm(i64 noundef 72) #15
  %54 = load i32, ptr %6, align 4
  %55 = load ptr, ptr %7, align 8
  invoke void @_ZN35MLRenderingSelectionParametersFrameC1EiP7QWidget(ptr noundef nonnull align 8 dereferenceable(72) %53, i32 noundef %54, ptr noundef %55)
          to label %56 unwind label %57

56:                                               ; preds = %52
  store ptr %53, ptr %4, align 8
  br label %88

57:                                               ; preds = %52
  %58 = landingpad { ptr, i32 }
          cleanup
  %59 = extractvalue { ptr, i32 } %58, 0
  store ptr %59, ptr %8, align 8
  %60 = extractvalue { ptr, i32 } %58, 1
  store i32 %60, ptr %9, align 4
  call void @_ZdlPv(ptr noundef %53) #16
  br label %90

61:                                               ; preds = %48
  %62 = load ptr, ptr %5, align 8
  %63 = call noundef ptr @_Z12qobject_castIP21MLRenderingBBoxActionET_P7QObject(ptr noundef %62)
  %64 = icmp ne ptr %63, null
  br i1 %64, label %65, label %74

65:                                               ; preds = %61
  %66 = call noalias noundef nonnull ptr @_Znwm(i64 noundef 96) #15
  %67 = load i32, ptr %6, align 4
  %68 = load ptr, ptr %7, align 8
  invoke void @_ZN30MLRenderingBBoxParametersFrameC1EiP7QWidget(ptr noundef nonnull align 8 dereferenceable(96) %66, i32 noundef %67, ptr noundef %68)
          to label %69 unwind label %70

69:                                               ; preds = %65
  store ptr %66, ptr %4, align 8
  br label %88

70:                                               ; preds = %65
  %71 = landingpad { ptr, i32 }
          cleanup
  %72 = extractvalue { ptr, i32 } %71, 0
  store ptr %72, ptr %8, align 8
  %73 = extractvalue { ptr, i32 } %71, 1
  store i32 %73, ptr %9, align 4
  call void @_ZdlPv(ptr noundef %66) #16
  br label %90

74:                                               ; preds = %61
  %75 = load ptr, ptr %5, align 8
  %76 = call noundef ptr @_Z12qobject_castIP30MLRenderingEdgeDecoratorActionET_P7QObject(ptr noundef %75)
  %77 = icmp ne ptr %76, null
  br i1 %77, label %78, label %87

78:                                               ; preds = %74
  %79 = call noalias noundef nonnull ptr @_Znwm(i64 noundef 96) #15
  %80 = load i32, ptr %6, align 4
  %81 = load ptr, ptr %7, align 8
  invoke void @_ZN42MLRenderingDefaultDecoratorParametersFrameC1EiP7QWidget(ptr noundef nonnull align 8 dereferenceable(96) %79, i32 noundef %80, ptr noundef %81)
          to label %82 unwind label %83

82:                                               ; preds = %78
  store ptr %79, ptr %4, align 8
  br label %88

83:                                               ; preds = %78
  %84 = landingpad { ptr, i32 }
          cleanup
  %85 = extractvalue { ptr, i32 } %84, 0
  store ptr %85, ptr %8, align 8
  %86 = extractvalue { ptr, i32 } %84, 1
  store i32 %86, ptr %9, align 4
  call void @_ZdlPv(ptr noundef %79) #16
  br label %90

87:                                               ; preds = %74
  store ptr null, ptr %4, align 8
  br label %88

88:                                               ; preds = %87, %82, %69, %56, %43, %30, %17
  %89 = load ptr, ptr %4, align 8
  ret ptr %89

90:                                               ; preds = %83, %70, %57, %44, %31, %18
  %91 = load ptr, ptr %8, align 8
  %92 = load i32, ptr %9, align 4
  %93 = insertvalue { ptr, i32 } poison, ptr %91, 0
  %94 = insertvalue { ptr, i32 } %93, i32 %92, 1
  resume { ptr, i32 } %94
}