; Function Attrs: mustprogress uwtable
define noundef ptr @_ZN26MLRenderingParametersFrame7factoryEP17MLRenderingActioniP7QWidget(ptr noundef %0, i32 noundef %1, ptr noundef %2) local_unnamed_addr #3 align 2 personality ptr @__gxx_personality_v0 {
  %4 = tail call noundef ptr @_ZNK11QMetaObject4castEP7QObject(ptr noundef nonnull align 8 dereferenceable(48) @_ZN22MLRenderingSolidAction16staticMetaObjectE, ptr noundef %0)
  %.not = icmp eq ptr %4, null
  br i1 %.not, label %9, label %5

5:                                                ; preds = %3
  %6 = tail call noalias noundef nonnull dereferenceable(120) ptr @_Znwm(i64 noundef 120) #22
  invoke void @_ZN31MLRenderingSolidParametersFrameC1EiP7QWidget(ptr noundef nonnull align 8 dereferenceable(120) %6, i32 noundef %1, ptr noundef %2)
          to label %39 unwind label %7

7:                                                ; preds = %5
  %8 = landingpad { ptr, i32 }
          cleanup
  br label %40

9:                                                ; preds = %3
  %10 = tail call noundef ptr @_ZNK11QMetaObject4castEP7QObject(ptr noundef nonnull align 8 dereferenceable(48) @_ZN23MLRenderingPointsAction16staticMetaObjectE, ptr noundef %0)
  %.not22 = icmp eq ptr %10, null
  br i1 %.not22, label %15, label %11

11:                                               ; preds = %9
  %12 = tail call noalias noundef nonnull dereferenceable(112) ptr @_Znwm(i64 noundef 112) #22
  invoke void @_ZN32MLRenderingPointsParametersFrameC1EiP7QWidget(ptr noundef nonnull align 8 dereferenceable(112) %12, i32 noundef %1, ptr noundef %2)
          to label %39 unwind label %13

13:                                               ; preds = %11
  %14 = landingpad { ptr, i32 }
          cleanup
  br label %40

15:                                               ; preds = %9
  %16 = tail call noundef ptr @_ZNK11QMetaObject4castEP7QObject(ptr noundef nonnull align 8 dereferenceable(48) @_ZN21MLRenderingWireAction16staticMetaObjectE, ptr noundef %0)
  %.not23 = icmp eq ptr %16, null
  br i1 %.not23, label %21, label %17

17:                                               ; preds = %15
  %18 = tail call noalias noundef nonnull dereferenceable(112) ptr @_Znwm(i64 noundef 112) #22
  invoke void @_ZN30MLRenderingWireParametersFrameC1EiP7QWidget(ptr noundef nonnull align 8 dereferenceable(112) %18, i32 noundef %1, ptr noundef %2)
          to label %39 unwind label %19

19:                                               ; preds = %17
  %20 = landingpad { ptr, i32 }
          cleanup
  br label %40

21:                                               ; preds = %15
  %22 = tail call noundef ptr @_ZNK11QMetaObject4castEP7QObject(ptr noundef nonnull align 8 dereferenceable(48) @_ZN26MLRenderingSelectionAction16staticMetaObjectE, ptr noundef %0)
  %.not24 = icmp eq ptr %22, null
  br i1 %.not24, label %27, label %23

23:                                               ; preds = %21
  %24 = tail call noalias noundef nonnull dereferenceable(72) ptr @_Znwm(i64 noundef 72) #22
  invoke void @_ZN35MLRenderingSelectionParametersFrameC1EiP7QWidget(ptr noundef nonnull align 8 dereferenceable(72) %24, i32 noundef %1, ptr noundef %2)
          to label %39 unwind label %25

25:                                               ; preds = %23
  %26 = landingpad { ptr, i32 }
          cleanup
  br label %40

27:                                               ; preds = %21
  %28 = tail call noundef ptr @_ZNK11QMetaObject4castEP7QObject(ptr noundef nonnull align 8 dereferenceable(48) @_ZN21MLRenderingBBoxAction16staticMetaObjectE, ptr noundef %0)
  %.not25 = icmp eq ptr %28, null
  br i1 %.not25, label %33, label %29

29:                                               ; preds = %27
  %30 = tail call noalias noundef nonnull dereferenceable(96) ptr @_Znwm(i64 noundef 96) #22
  invoke void @_ZN30MLRenderingBBoxParametersFrameC1EiP7QWidget(ptr noundef nonnull align 8 dereferenceable(96) %30, i32 noundef %1, ptr noundef %2)
          to label %39 unwind label %31

31:                                               ; preds = %29
  %32 = landingpad { ptr, i32 }
          cleanup
  br label %40

33:                                               ; preds = %27
  %34 = tail call noundef ptr @_ZNK11QMetaObject4castEP7QObject(ptr noundef nonnull align 8 dereferenceable(48) @_ZN30MLRenderingEdgeDecoratorAction16staticMetaObjectE, ptr noundef %0)
  %.not26 = icmp eq ptr %34, null
  br i1 %.not26, label %39, label %35

35:                                               ; preds = %33
  %36 = tail call noalias noundef nonnull dereferenceable(96) ptr @_Znwm(i64 noundef 96) #22
  invoke void @_ZN42MLRenderingDefaultDecoratorParametersFrameC1EiP7QWidget(ptr noundef nonnull align 8 dereferenceable(96) %36, i32 noundef %1, ptr noundef %2)
          to label %39 unwind label %37

37:                                               ; preds = %35
  %38 = landingpad { ptr, i32 }
          cleanup
  br label %40

39:                                               ; preds = %33, %35, %29, %23, %17, %11, %5
  %.021 = phi ptr [ %6, %5 ], [ %12, %11 ], [ %18, %17 ], [ %24, %23 ], [ %30, %29 ], [ %36, %35 ], [ null, %33 ]
  ret ptr %.021

40:                                               ; preds = %37, %31, %25, %19, %13, %7
  %.sink = phi ptr [ %36, %37 ], [ %30, %31 ], [ %24, %25 ], [ %18, %19 ], [ %12, %13 ], [ %6, %7 ]
  %.pn = phi { ptr, i32 } [ %38, %37 ], [ %32, %31 ], [ %26, %25 ], [ %20, %19 ], [ %14, %13 ], [ %8, %7 ]
  tail call void @_ZdlPv(ptr noundef nonnull %.sink) #24
  resume { ptr, i32 } %.pn
}